target datalayout = "e-m:e-p270:32:32-p271:32:32-p272:64:64-i64:64-i128:128-f80:128-n8:16:32:64-S128"
target triple = "x86_64-pc-linux-gnu"

%"struct.std::_Rb_tree_header" = type { %"struct.std::_Rb_tree_node_base", i64 }
%"struct.std::_Rb_tree_node_base" = type { i32, ptr, ptr, ptr }
%"class.vcg::Box3" = type { %"class.vcg::Point3", %"class.vcg::Point3" }
%"class.vcg::Point3" = type { [3 x float] }
%"class.vcg::Matrix44" = type { %"struct.std::array.122" }
%"struct.std::array.122" = type { [16 x float] }
%"class.std::__cxx11::basic_string" = type { %"struct.std::__cxx11::basic_string<char>::_Alloc_hider", i64, %union.anon }
%"struct.std::__cxx11::basic_string<char>::_Alloc_hider" = type { ptr }
%union.anon = type { i64, [8 x i8] }
%class.QList.149 = type { %union.anon.151 }
%union.anon.151 = type { %struct.QListData }
%struct.QListData = type { ptr }
%class.QList = type { %union.anon.148 }
%union.anon.148 = type { %struct.QListData }
%class.DecorateRasterProjPlugin = type { %class.QObject, %class.DecoratePlugin.base, %"class.glw::Context", i8, %"class.vcg::Box3", %class.QMap, ptr, ptr, %"class.vcg::Matrix44", %"class.vcg::Matrix44", %"class.vcg::Matrix44", %"class.glw::detail::ObjectSharedPointer", %"class.glw::detail::ObjectSharedPointer", %"class.glw::detail::ObjectSharedPointer.171", %class.MeshLabPlugin }
%class.QObject = type { ptr, %class.QScopedPointer }
%class.QScopedPointer = type { ptr }
%class.DecoratePlugin.base = type { %class.MeshLabPluginLogger, %class.QList, %class.QList.149 }
%class.MeshLabPluginLogger = type { ptr, ptr }
%"class.glw::Context" = type { ptr, i8, i32, i32, i32, %"class.std::map.152", %"class.std::map.160" }
%"class.std::map.152" = type { %"class.std::_Rb_tree.153" }
%"class.std::_Rb_tree.153" = type { %"struct.std::_Rb_tree<glw::Object *, std::pair<glw::Object *const, glw::detail::RefCountedObject<glw::Object, glw::detail::ObjectDeleter, glw::detail::NoType> *>, std::_Select1st<std::pair<glw::Object *const, glw::detail::RefCountedObject<glw::Object, glw::detail::ObjectDeleter, glw::detail::NoType> *>>, std::less<glw::Object *>>::_Rb_tree_impl" }
%"struct.std::_Rb_tree<glw::Object *, std::pair<glw::Object *const, glw::detail::RefCountedObject<glw::Object, glw::detail::ObjectDeleter, glw::detail::NoType> *>, std::_Select1st<std::pair<glw::Object *const, glw::detail::RefCountedObject<glw::Object, glw::detail::ObjectDeleter, glw::detail::NoType> *>>, std::less<glw::Object *>>::_Rb_tree_impl" = type { %"struct.std::_Rb_tree_key_compare.157", %"struct.std::_Rb_tree_header" }
%"struct.std::_Rb_tree_key_compare.157" = type { %"struct.std::less.158" }
%"struct.std::less.158" = type { i8 }
%"class.std::map.160" = type { %"class.std::_Rb_tree.161" }
%"class.std::_Rb_tree.161" = type { %"struct.std::_Rb_tree<std::pair<unsigned int, int>, std::pair<const std::pair<unsigned int, int>, glw::detail::RefCountedObject<glw::BoundObject, glw::detail::DefaultDeleter<glw::BoundObject>, glw::detail::NoType> *>, std::_Select1st<std::pair<const std::pair<unsigned int, int>, glw::detail::RefCountedObject<glw::BoundObject, glw::detail::DefaultDeleter<glw::BoundObject>, glw::detail::NoType> *>>, std::less<std::pair<unsigned int, int>>>::_Rb_tree_impl" }
%"struct.std::_Rb_tree<std::pair<unsigned int, int>, std::pair<const std::pair<unsigned int, int>, glw::detail::RefCountedObject<glw::BoundObject, glw::detail::DefaultDeleter<glw::BoundObject>, glw::detail::NoType> *>, std::_Select1st<std::pair<const std::pair<unsigned int, int>, glw::detail::RefCountedObject<glw::BoundObject, glw::detail::DefaultDeleter<glw::BoundObject>, glw::detail::NoType> *>>, std::less<std::pair<unsigned int, int>>>::_Rb_tree_impl" = type { %"struct.std::_Rb_tree_key_compare.165", %"struct.std::_Rb_tree_header" }
%"struct.std::_Rb_tree_key_compare.165" = type { %"struct.std::less.166" }
%"struct.std::less.166" = type { i8 }
%class.QMap = type { ptr }
%"class.glw::detail::ObjectSharedPointer" = type { %"class.glw::detail::ObjectSharedPointer.168" }
%"class.glw::detail::ObjectSharedPointer.168" = type { %"class.glw::detail::ObjectSharedPointer.169" }
%"class.glw::detail::ObjectSharedPointer.169" = type { %"class.glw::detail::ObjectSharedPointer.170" }
%"class.glw::detail::ObjectSharedPointer.170" = type { ptr }
%"class.glw::detail::ObjectSharedPointer.171" = type { %"class.glw::detail::ObjectSharedPointer.170" }
%class.MeshLabPlugin = type { ptr, i8, %class.QFileInfo }
%class.QFileInfo = type { %class.QSharedDataPointer }
%class.QSharedDataPointer = type { ptr }
%class.QMessageLogger = type { %class.QMessageLogContext }
%class.QMessageLogContext = type { i32, i32, ptr, ptr, ptr }

@.str.42 = private unnamed_addr constant [33 x i8] c"No valid raster has been loaded.\00", align 1
@.str.43 = private unnamed_addr constant [33 x i8] c"Impossible to load GLEW library.\00", align 1
@.str.44 = private unnamed_addr constant [39 x i8] c"Error while initializing shaders. :%s\0A\00", align 1
@.str.45 = private unnamed_addr constant [8 x i8] c"default\00", align 1

; Function Attrs: mustprogress nounwind uwtable
define linkonce_odr void @_ZN18QMessageLogContextC2EPKciS1_S1_(ptr noundef nonnull align 8 dereferenceable(32) %0, ptr noundef %1, i32 noundef %2, ptr noundef %3, ptr noundef %4) unnamed_addr #4 comdat align 2 {
  %6 = alloca ptr, align 8
  %7 = alloca ptr, align 8
  %8 = alloca i32, align 4
  %9 = alloca ptr, align 8
  %10 = alloca ptr, align 8
  store ptr %0, ptr %6, align 8
  store ptr %1, ptr %7, align 8
  store i32 %2, ptr %8, align 4
  store ptr %3, ptr %9, align 8
  store ptr %4, ptr %10, align 8
  %11 = load ptr, ptr %6, align 8
  %12 = getelementptr inbounds %class.QMessageLogContext, ptr %11, i32 0, i32 0
  store i32 2, ptr %12, align 8
  %13 = getelementptr inbounds %class.QMessageLogContext, ptr %11, i32 0, i32 1
  %14 = load i32, ptr %8, align 4
  store i32 %14, ptr %13, align 4
  %15 = getelementptr inbounds %class.QMessageLogContext, ptr %11, i32 0, i32 2
  %16 = load ptr, ptr %7, align 8
  store ptr %16, ptr %15, align 8
  %17 = getelementptr inbounds %class.QMessageLogContext, ptr %11, i32 0, i32 3
  %18 = load ptr, ptr %9, align 8
  store ptr %18, ptr %17, align 8
  %19 = getelementptr inbounds %class.QMessageLogContext, ptr %11, i32 0, i32 4
  %20 = load ptr, ptr %10, align 8
  store ptr %20, ptr %19, align 8
  ret void
}

; Function Attrs: mustprogress nounwind uwtable
define linkonce_odr void @_ZN14QMessageLoggerC2EPKciS1_(ptr noundef nonnull align 8 dereferenceable(32) %0, ptr noundef %1, i32 noundef %2, ptr noundef %3) unnamed_addr #4 comdat align 2 {
  %5 = alloca ptr, align 8
  %6 = alloca ptr, align 8
  %7 = alloca i32, align 4
  %8 = alloca ptr, align 8
  store ptr %0, ptr %5, align 8
  store ptr %1, ptr %6, align 8
  store i32 %2, ptr %7, align 4
  store ptr %3, ptr %8, align 8
  %9 = load ptr, ptr %5, align 8
  %10 = getelementptr inbounds %class.QMessageLogger, ptr %9, i32 0, i32 0
  %11 = load ptr, ptr %6, align 8
  %12 = load i32, ptr %7, align 4
  %13 = load ptr, ptr %8, align 8
  call void @_ZN18QMessageLogContextC2EPKciS1_S1_(ptr noundef nonnull align 8 dereferenceable(32) %10, ptr noundef %11, i32 noundef %12, ptr noundef %13, ptr noundef @.str.45) #3
  ret void
}

; Function Attrs: mustprogress uwtable
define noundef zeroext i1 @_ZN24DecorateRasterProjPlugin13startDecorateEPK7QActionR12MeshDocumentPK17RichParameterListP6GLArea(ptr noundef nonnull align 8 dereferenceable(440) %0, ptr noundef %1, ptr noundef nonnull align 8 dereferenceable(192) %2, ptr noundef %3, ptr noundef %4) unnamed_addr #5 align 2 personality ptr @__gxx_personality_v0 {
  %6 = alloca i1, align 1
  %7 = alloca ptr, align 8
  %8 = alloca ptr, align 8
  %9 = alloca ptr, align 8
  %10 = alloca ptr, align 8
  %11 = alloca ptr, align 8
  %12 = alloca %class.QMessageLogger, align 8
  %13 = alloca %class.QMessageLogger, align 8
  %14 = alloca %"class.std::__cxx11::basic_string", align 8
  %15 = alloca ptr, align 8
  %16 = alloca i32, align 4
  %17 = alloca %class.QMessageLogger, align 8
  %18 = alloca i32, align 4
  store ptr %0, ptr %7, align 8
  store ptr %1, ptr %8, align 8
  store ptr %2, ptr %9, align 8
  store ptr %3, ptr %10, align 8
  store ptr %4, ptr %11, align 8
  %19 = load ptr, ptr %7, align 8
  %20 = getelementptr inbounds i8, ptr %19, i64 16
  %21 = load ptr, ptr %8, align 8
  %22 = load ptr, ptr %20, align 8
  %23 = getelementptr inbounds ptr, ptr %22, i64 18
  %24 = load ptr, ptr %23, align 8
  %25 = call noundef i32 %24(ptr noundef nonnull align 8 dereferenceable(32) %20, ptr noundef %21)
  switch i32 %25, label %53 [
    i32 0, label %26
  ]

26:                                               ; preds = %5
  %27 = load ptr, ptr %9, align 8
  %28 = call noundef ptr @_ZN12MeshDocument2rmEv(ptr noundef nonnull align 8 dereferenceable(192) %27)
  %29 = icmp eq ptr %28, null
  br i1 %29, label %30, label %31

30:                                               ; preds = %26
  call void @_ZN14QMessageLoggerC2EPKciS1_(ptr noundef nonnull align 8 dereferenceable(32) %12, ptr noundef null, i32 noundef 0, ptr noundef null)
  call void (ptr, ptr, ...) @_ZNK14QMessageLogger7warningEPKcz(ptr noundef nonnull align 8 dereferenceable(32) %12, ptr noundef @.str.42) #24
  store i1 false, ptr %6, align 1
  br label %55

31:                                               ; preds = %26
  call void @glPushAttrib(i32 noundef 1048575)
  %32 = call noundef zeroext i1 @_ZN19GLExtensionsManager34initializeGLextensions_notThrowingEv()
  br i1 %32, label %34, label %33

33:                                               ; preds = %31
  call void @_ZN14QMessageLoggerC2EPKciS1_(ptr noundef nonnull align 8 dereferenceable(32) %13, ptr noundef null, i32 noundef 0, ptr noundef null)
  call void (ptr, ptr, ...) @_ZNK14QMessageLogger7warningEPKcz(ptr noundef nonnull align 8 dereferenceable(32) %13, ptr noundef @.str.43) #24
  store i1 false, ptr %6, align 1
  br label %55

34:                                               ; preds = %31
  %35 = getelementptr inbounds %class.DecorateRasterProjPlugin, ptr %19, i32 0, i32 2
  %36 = call noundef zeroext i1 @_ZN3glw7Context7acquireEv(ptr noundef nonnull align 8 dereferenceable(120) %35)
  call void @_ZNSt7__cxx1112basic_stringIcSt11char_traitsIcESaIcEEC1Ev(ptr noundef nonnull align 8 dereferenceable(32) %14) #3
  %37 = invoke noundef zeroext i1 @_ZN24DecorateRasterProjPlugin11initShadersERNSt7__cxx1112basic_stringIcSt11char_traitsIcESaIcEEE(ptr noundef nonnull align 8 dereferenceable(440) %19, ptr noundef nonnull align 8 dereferenceable(32) %14)
          to label %38 unwind label %43

38:                                               ; preds = %34
  br i1 %37, label %47, label %39

39:                                               ; preds = %38
  invoke void @_ZN14QMessageLoggerC2EPKciS1_(ptr noundef nonnull align 8 dereferenceable(32) %17, ptr noundef null, i32 noundef 0, ptr noundef null)
          to label %40 unwind label %43

40:                                               ; preds = %39
  %41 = call noundef ptr @_ZNKSt7__cxx1112basic_stringIcSt11char_traitsIcESaIcEE5c_strEv(ptr noundef nonnull align 8 dereferenceable(32) %14) #3
  invoke void (ptr, ptr, ...) @_ZNK14QMessageLogger7warningEPKcz(ptr noundef nonnull align 8 dereferenceable(32) %17, ptr noundef @.str.44, ptr noundef %41) #24
          to label %42 unwind label %43

42:                                               ; preds = %40
  store i1 false, ptr %6, align 1
  store i32 1, ptr %18, align 4
  br label %52

43:                                               ; preds = %47, %40, %39, %34
  %44 = landingpad { ptr, i32 }
          cleanup
  %45 = extractvalue { ptr, i32 } %44, 0
  store ptr %45, ptr %15, align 8
  %46 = extractvalue { ptr, i32 } %44, 1
  store i32 %46, ptr %16, align 4
  call void @_ZNSt7__cxx1112basic_stringIcSt11char_traitsIcESaIcEED1Ev(ptr noundef nonnull align 8 dereferenceable(32) %14) #3
  br label %57

47:                                               ; preds = %38
  %48 = getelementptr inbounds %class.DecorateRasterProjPlugin, ptr %19, i32 0, i32 5
  call void @_ZN4QMapIiN24DecorateRasterProjPlugin10MeshDrawerEE5clearEv(ptr noundef nonnull align 8 dereferenceable(8) %48)
  %49 = getelementptr inbounds %class.DecorateRasterProjPlugin, ptr %19, i32 0, i32 6
  store ptr null, ptr %49, align 8
  %50 = getelementptr inbounds %class.DecorateRasterProjPlugin, ptr %19, i32 0, i32 7
  store ptr null, ptr %50, align 8
  invoke void @glPopAttrib()
          to label %51 unwind label %43

51:                                               ; preds = %47
  store i1 true, ptr %6, align 1
  store i32 1, ptr %18, align 4
  br label %52

52:                                               ; preds = %51, %42
  call void @_ZNSt7__cxx1112basic_stringIcSt11char_traitsIcESaIcEED1Ev(ptr noundef nonnull align 8 dereferenceable(32) %14) #3
  br label %55

53:                                               ; preds = %5
  br label %54

54:                                               ; preds = %53
  store i1 false, ptr %6, align 1
  br label %55

55:                                               ; preds = %54, %52, %33, %30
  %56 = load i1, ptr %6, align 1
  ret i1 %56

57:                                               ; preds = %43
  %58 = load ptr, ptr %15, align 8
  %59 = load i32, ptr %16, align 4
  %60 = insertvalue { ptr, i32 } poison, ptr %58, 0
  %61 = insertvalue { ptr, i32 } %60, i32 %59, 1
  resume { ptr, i32 } %61
}