; Function Attrs: mustprogress uwtable
define noundef zeroext i1 @_ZN24DecorateRasterProjPlugin13startDecorateEPK7QActionR12MeshDocumentPK17RichParameterListP6GLArea(ptr noundef nonnull align 8 dereferenceable(440) %0, ptr noundef %1, ptr noundef nonnull align 8 dereferenceable(192) %2, ptr nocapture readnone %3, ptr nocapture readnone %4) unnamed_addr #9 align 2 personality ptr @__gxx_personality_v0 {
  %6 = alloca %class.QMessageLogger, align 8
  %7 = alloca %class.QMessageLogger, align 8
  %8 = alloca %"class.std::__cxx11::basic_string", align 8
  %9 = alloca %class.QMessageLogger, align 8
  %10 = getelementptr inbounds i8, ptr %0, i64 16
  %11 = load ptr, ptr %10, align 8
  %12 = getelementptr inbounds i8, ptr %11, i64 144
  %13 = load ptr, ptr %12, align 8
  %14 = tail call noundef i32 %13(ptr noundef nonnull align 8 dereferenceable(32) %10, ptr noundef %1)
  %cond = icmp eq i32 %14, 0
  br i1 %cond, label %15, label %41

15:                                               ; preds = %5
  %16 = tail call noundef ptr @_ZN12MeshDocument2rmEv(ptr noundef nonnull align 8 dereferenceable(192) %2)
  %17 = icmp eq ptr %16, null
  br i1 %17, label %18, label %21

18:                                               ; preds = %15
  store i32 2, ptr %6, align 8
  %19 = getelementptr inbounds i8, ptr %6, i64 4
  %20 = getelementptr inbounds i8, ptr %6, i64 24
  call void @llvm.memset.p0.i64(ptr noundef nonnull align 4 dereferenceable(20) %19, i8 0, i64 20, i1 false)
  store ptr @.str.45, ptr %20, align 8
  call void (ptr, ptr, ...) @_ZNK14QMessageLogger7warningEPKcz(ptr noundef nonnull align 8 dereferenceable(32) %6, ptr noundef nonnull @.str.42) #28
  br label %41

21:                                               ; preds = %15
  tail call void @glPushAttrib(i32 noundef 1048575)
  %22 = tail call noundef zeroext i1 @_ZN19GLExtensionsManager34initializeGLextensions_notThrowingEv()
  br i1 %22, label %26, label %23

23:                                               ; preds = %21
  store i32 2, ptr %7, align 8
  %24 = getelementptr inbounds i8, ptr %7, i64 4
  %25 = getelementptr inbounds i8, ptr %7, i64 24
  call void @llvm.memset.p0.i64(ptr noundef nonnull align 4 dereferenceable(20) %24, i8 0, i64 20, i1 false)
  store ptr @.str.45, ptr %25, align 8
  call void (ptr, ptr, ...) @_ZNK14QMessageLogger7warningEPKcz(ptr noundef nonnull align 8 dereferenceable(32) %7, ptr noundef nonnull @.str.43) #28
  br label %41

26:                                               ; preds = %21
  %27 = getelementptr inbounds i8, ptr %0, i64 48
  %28 = tail call noundef zeroext i1 @_ZN3glw7Context7acquireEv(ptr noundef nonnull align 8 dereferenceable(120) %27)
  call void @_ZNSt7__cxx1112basic_stringIcSt11char_traitsIcESaIcEEC1Ev(ptr noundef nonnull align 8 dereferenceable(32) %8) #23
  %29 = invoke noundef zeroext i1 @_ZN24DecorateRasterProjPlugin11initShadersERNSt7__cxx1112basic_stringIcSt11char_traitsIcESaIcEEE(ptr noundef nonnull align 8 dereferenceable(440) %0, ptr noundef nonnull align 8 dereferenceable(32) %8)
          to label %30 unwind label %35

30:                                               ; preds = %26
  br i1 %29, label %37, label %31

31:                                               ; preds = %30
  store i32 2, ptr %9, align 8
  %32 = getelementptr inbounds i8, ptr %9, i64 4
  %33 = getelementptr inbounds i8, ptr %9, i64 24
  call void @llvm.memset.p0.i64(ptr noundef nonnull align 4 dereferenceable(20) %32, i8 0, i64 20, i1 false)
  store ptr @.str.45, ptr %33, align 8
  %34 = call noundef ptr @_ZNKSt7__cxx1112basic_stringIcSt11char_traitsIcESaIcEE5c_strEv(ptr noundef nonnull align 8 dereferenceable(32) %8) #23
  invoke void (ptr, ptr, ...) @_ZNK14QMessageLogger7warningEPKcz(ptr noundef nonnull align 8 dereferenceable(32) %9, ptr noundef nonnull @.str.44, ptr noundef %34) #28
          to label %40 unwind label %35

35:                                               ; preds = %37, %31, %26
  %36 = landingpad { ptr, i32 }
          cleanup
  call void @_ZNSt7__cxx1112basic_stringIcSt11char_traitsIcESaIcEED1Ev(ptr noundef nonnull align 8 dereferenceable(32) %8) #23
  resume { ptr, i32 } %36

37:                                               ; preds = %30
  %38 = getelementptr inbounds i8, ptr %0, i64 200
  call void @_ZN4QMapIiN24DecorateRasterProjPlugin10MeshDrawerEE5clearEv(ptr noundef nonnull align 8 dereferenceable(8) %38)
  %39 = getelementptr inbounds i8, ptr %0, i64 208
  call void @llvm.memset.p0.i64(ptr noundef nonnull align 8 dereferenceable(16) %39, i8 0, i64 16, i1 false)
  invoke void @glPopAttrib()
          to label %40 unwind label %35

40:                                               ; preds = %37, %31
  call void @_ZNSt7__cxx1112basic_stringIcSt11char_traitsIcESaIcEED1Ev(ptr noundef nonnull align 8 dereferenceable(32) %8) #23
  br label %41

41:                                               ; preds = %5, %40, %23, %18
  %.1 = phi i1 [ false, %18 ], [ %29, %40 ], [ false, %23 ], [ false, %5 ]
  ret i1 %.1
}